target datalayout = "e-m:e-p270:32:32-p271:32:32-p272:64:64-i64:64-i128:128-f80:128-n8:16:32:64-S128"
target triple = "x86_64-unknown-linux-gnu"

%struct.Token = type { i32, ptr, i64, x86_fp80, ptr, i32, ptr, ptr, ptr, ptr, i32, i32, i8, i8, ptr, ptr }
%struct.File = type { ptr, i32, ptr, ptr, i32 }

@.str.63 = private unnamed_addr constant [4 x i8] c"%d\0A\00", align 1
@counter_macro.i = internal global i32 0, align 4

; Function Attrs: nounwind uwtable
define internal ptr @new_num_token(i32 noundef %val, ptr noundef %tmpl) #0 {
entry:
  %val.addr = alloca i32, align 4
  %tmpl.addr = alloca ptr, align 8
  %buf = alloca ptr, align 8
  store i32 %val, ptr %val.addr, align 4
  store ptr %tmpl, ptr %tmpl.addr, align 8
  %0 = load i32, ptr %val.addr, align 4
  %call = call ptr (ptr, ...) @format(ptr noundef @.str.63, i32 noundef %0)
  store ptr %call, ptr %buf, align 8
  %1 = load ptr, ptr %tmpl.addr, align 8
  %file = getelementptr inbounds %struct.Token, ptr %1, i32 0, i32 8
  %2 = load ptr, ptr %file, align 16
  %name = getelementptr inbounds %struct.File, ptr %2, i32 0, i32 0
  %3 = load ptr, ptr %name, align 8
  %4 = load ptr, ptr %tmpl.addr, align 8
  %file1 = getelementptr inbounds %struct.Token, ptr %4, i32 0, i32 8
  %5 = load ptr, ptr %file1, align 16
  %file_no = getelementptr inbounds %struct.File, ptr %5, i32 0, i32 1
  %6 = load i32, ptr %file_no, align 8
  %7 = load ptr, ptr %buf, align 8
  %call2 = call ptr @new_file(ptr noundef %3, i32 noundef %6, ptr noundef %7)
  %call3 = call ptr @tokenize(ptr noundef %call2)
  ret ptr %call3
}

; Function Attrs: nounwind uwtable
define internal ptr @counter_macro(ptr noundef %tmpl) #0 {
entry:
  %tmpl.addr = alloca ptr, align 8
  store ptr %tmpl, ptr %tmpl.addr, align 8
  %0 = load i32, ptr @counter_macro.i, align 4
  %inc = add nsw i32 %0, 1
  store i32 %inc, ptr @counter_macro.i, align 4
  %1 = load ptr, ptr %tmpl.addr, align 8
  %call = call ptr @new_num_token(i32 noundef %0, ptr noundef %1)
  ret ptr %call
}