; Function Attrs: nounwind uwtable
define internal ptr @counter_macro(ptr nocapture noundef readonly %tmpl) #0 {
entry:
  %0 = load i32, ptr @counter_macro.i, align 4
  %inc = add nsw i32 %0, 1
  store i32 %inc, ptr @counter_macro.i, align 4
  %call.i = tail call ptr (ptr, ...) @format(ptr noundef nonnull @.str.63, i32 noundef %0) #14
  %file.i = getelementptr inbounds %struct.Token, ptr %tmpl, i64 0, i32 8
  %1 = load ptr, ptr %file.i, align 16
  %2 = load ptr, ptr %1, align 8
  %file_no.i = getelementptr inbounds %struct.File, ptr %1, i64 0, i32 1
  %3 = load i32, ptr %file_no.i, align 8
  %call2.i = tail call ptr @new_file(ptr noundef %2, i32 noundef %3, ptr noundef %call.i) #14
  %call3.i = tail call ptr @tokenize(ptr noundef %call2.i) #14
  ret ptr %call3.i
}